target datalayout = "e-m:e-p270:32:32-p271:32:32-p272:64:64-i64:64-i128:128-f80:128-n8:16:32:64-S128"
target triple = "x86_64-pc-linux-gnu"

%struct._lv_textarea_t = type { %struct._lv_obj_t, ptr, ptr, ptr, ptr, ptr, i32, i32, %struct.anon, i32, i32, i8 }
%struct._lv_obj_t = type { ptr, ptr, ptr, ptr, ptr, %struct.lv_area_t, i32, i16, i16 }
%struct.lv_area_t = type { i32, i32, i32, i32 }
%struct.anon = type { i32, i32, %struct.lv_area_t, i32, i8 }

@.str.1 = private unnamed_addr constant [1 x i8] zeroinitializer, align 1

; Function Attrs: nounwind uwtable
define internal void @lv_textarea_constructor(ptr noundef %0, ptr noundef %1) #0 {
  %3 = alloca ptr, align 8
  %4 = alloca ptr, align 8
  %5 = alloca ptr, align 8
  store ptr %0, ptr %3, align 8, !tbaa !3
  store ptr %1, ptr %4, align 8, !tbaa !8
  call void @llvm.lifetime.start.p0(i64 8, ptr %5) #6
  %6 = load ptr, ptr %4, align 8, !tbaa !8
  store ptr %6, ptr %5, align 8, !tbaa !10
  %7 = load ptr, ptr %5, align 8, !tbaa !10
  %8 = getelementptr inbounds nuw %struct._lv_textarea_t, ptr %7, i32 0, i32 11
  %9 = load i8, ptr %8, align 8
  %10 = and i8 %9, -5
  %11 = or i8 %10, 0
  store i8 %11, ptr %8, align 8
  %12 = load ptr, ptr %5, align 8, !tbaa !10
  %13 = getelementptr inbounds nuw %struct._lv_textarea_t, ptr %12, i32 0, i32 3
  store ptr null, ptr %13, align 8, !tbaa !12
  %14 = load ptr, ptr %5, align 8, !tbaa !10
  %15 = getelementptr inbounds nuw %struct._lv_textarea_t, ptr %14, i32 0, i32 4
  store ptr null, ptr %15, align 8, !tbaa !22
  %16 = load ptr, ptr %5, align 8, !tbaa !10
  %17 = getelementptr inbounds nuw %struct._lv_textarea_t, ptr %16, i32 0, i32 7
  store i32 1500, ptr %17, align 4, !tbaa !23
  %18 = load ptr, ptr %5, align 8, !tbaa !10
  %19 = getelementptr inbounds nuw %struct._lv_textarea_t, ptr %18, i32 0, i32 5
  store ptr null, ptr %19, align 8, !tbaa !24
  %20 = load ptr, ptr %5, align 8, !tbaa !10
  %21 = getelementptr inbounds nuw %struct._lv_textarea_t, ptr %20, i32 0, i32 6
  store i32 0, ptr %21, align 8, !tbaa !25
  %22 = load ptr, ptr %5, align 8, !tbaa !10
  %23 = getelementptr inbounds nuw %struct._lv_textarea_t, ptr %22, i32 0, i32 8
  %24 = getelementptr inbounds nuw %struct.anon, ptr %23, i32 0, i32 4
  %25 = load i8, ptr %24, align 4
  %26 = and i8 %25, -2
  %27 = or i8 %26, 1
  store i8 %27, ptr %24, align 4
  %28 = load ptr, ptr %5, align 8, !tbaa !10
  %29 = getelementptr inbounds nuw %struct._lv_textarea_t, ptr %28, i32 0, i32 8
  %30 = getelementptr inbounds nuw %struct.anon, ptr %29, i32 0, i32 1
  store i32 1, ptr %30, align 4, !tbaa !26
  %31 = load ptr, ptr %5, align 8, !tbaa !10
  %32 = getelementptr inbounds nuw %struct._lv_textarea_t, ptr %31, i32 0, i32 8
  %33 = getelementptr inbounds nuw %struct.anon, ptr %32, i32 0, i32 4
  %34 = load i8, ptr %33, align 4
  %35 = and i8 %34, -3
  %36 = or i8 %35, 2
  store i8 %36, ptr %33, align 4
  %37 = load ptr, ptr %5, align 8, !tbaa !10
  %38 = getelementptr inbounds nuw %struct._lv_textarea_t, ptr %37, i32 0, i32 8
  %39 = getelementptr inbounds nuw %struct.anon, ptr %38, i32 0, i32 0
  store i32 0, ptr %39, align 8, !tbaa !27
  %40 = load ptr, ptr %5, align 8, !tbaa !10
  %41 = getelementptr inbounds nuw %struct._lv_textarea_t, ptr %40, i32 0, i32 11
  %42 = load i8, ptr %41, align 8
  %43 = and i8 %42, -9
  %44 = or i8 %43, 0
  store i8 %44, ptr %41, align 8
  %45 = load ptr, ptr %5, align 8, !tbaa !10
  %46 = getelementptr inbounds nuw %struct._lv_textarea_t, ptr %45, i32 0, i32 11
  %47 = load i8, ptr %46, align 8
  %48 = and i8 %47, -3
  %49 = or i8 %48, 0
  store i8 %49, ptr %46, align 8
  %50 = load ptr, ptr %5, align 8, !tbaa !10
  %51 = getelementptr inbounds nuw %struct._lv_textarea_t, ptr %50, i32 0, i32 1
  store ptr null, ptr %51, align 8, !tbaa !28
  %52 = load ptr, ptr %5, align 8, !tbaa !10
  %53 = getelementptr inbounds nuw %struct._lv_textarea_t, ptr %52, i32 0, i32 2
  store ptr null, ptr %53, align 8, !tbaa !29
  %54 = load ptr, ptr %4, align 8, !tbaa !8
  %55 = call ptr @lv_label_create(ptr noundef %54)
  %56 = load ptr, ptr %5, align 8, !tbaa !10
  %57 = getelementptr inbounds nuw %struct._lv_textarea_t, ptr %56, i32 0, i32 1
  store ptr %55, ptr %57, align 8, !tbaa !28
  %58 = load ptr, ptr %5, align 8, !tbaa !10
  %59 = getelementptr inbounds nuw %struct._lv_textarea_t, ptr %58, i32 0, i32 1
  %60 = load ptr, ptr %59, align 8, !tbaa !28
  %61 = call i32 @lv_pct(i32 noundef 100)
  call void @lv_obj_set_width(ptr noundef %60, i32 noundef %61)
  %62 = load ptr, ptr %5, align 8, !tbaa !10
  %63 = getelementptr inbounds nuw %struct._lv_textarea_t, ptr %62, i32 0, i32 1
  %64 = load ptr, ptr %63, align 8, !tbaa !28
  call void @lv_label_set_text(ptr noundef %64, ptr noundef @.str.1)
  %65 = load ptr, ptr %5, align 8, !tbaa !10
  %66 = getelementptr inbounds nuw %struct._lv_textarea_t, ptr %65, i32 0, i32 1
  %67 = load ptr, ptr %66, align 8, !tbaa !28
  %68 = call ptr @lv_obj_add_event_cb(ptr noundef %67, ptr noundef @label_event_cb, i32 noundef 0, ptr noundef null)
  %69 = load ptr, ptr %4, align 8, !tbaa !8
  call void @lv_obj_add_flag(ptr noundef %69, i32 noundef 1024)
  %70 = load ptr, ptr %4, align 8, !tbaa !8
  call void @lv_obj_remove_flag(ptr noundef %70, i32 noundef 2048)
  %71 = load ptr, ptr %4, align 8, !tbaa !8
  call void @lv_textarea_set_cursor_pos(ptr noundef %71, i32 noundef 0)
  %72 = load ptr, ptr %4, align 8, !tbaa !8
  call void @start_cursor_blink(ptr noundef %72)
  call void @llvm.lifetime.end.p0(i64 8, ptr %5) #6
  ret void
}