; Function Attrs: nounwind uwtable
define internal void @lv_textarea_constructor(ptr readnone captures(none) %0, ptr noundef initializes((64, 120)) %1) #0 {
  %3 = getelementptr inbounds nuw i8, ptr %1, i64 152
  %4 = load i8, ptr %3, align 8
  %5 = getelementptr inbounds nuw i8, ptr %1, i64 80
  %6 = getelementptr inbounds nuw i8, ptr %1, i64 108
  tail call void @llvm.memset.p0.i64(ptr noundef nonnull align 8 dereferenceable(16) %5, i8 0, i64 16, i1 false)
  store i32 1500, ptr %6, align 4, !tbaa !3
  %7 = getelementptr inbounds nuw i8, ptr %1, i64 96
  store ptr null, ptr %7, align 8, !tbaa !18
  %8 = getelementptr inbounds nuw i8, ptr %1, i64 104
  store i32 0, ptr %8, align 8, !tbaa !19
  %9 = getelementptr inbounds nuw i8, ptr %1, i64 112
  %10 = getelementptr inbounds nuw i8, ptr %1, i64 140
  %11 = load i8, ptr %10, align 4
  %12 = getelementptr inbounds nuw i8, ptr %1, i64 116
  store i32 1, ptr %12, align 4, !tbaa !20
  %13 = or i8 %11, 3
  store i8 %13, ptr %10, align 4
  store i32 0, ptr %9, align 8, !tbaa !21
  %14 = and i8 %4, -15
  store i8 %14, ptr %3, align 8
  %15 = getelementptr inbounds nuw i8, ptr %1, i64 64
  tail call void @llvm.memset.p0.i64(ptr noundef nonnull align 8 dereferenceable(16) %15, i8 0, i64 16, i1 false)
  %16 = tail call ptr @lv_label_create(ptr noundef %1) #10
  store ptr %16, ptr %15, align 8, !tbaa !22
  %17 = tail call i32 @lv_pct(i32 noundef 100) #10
  tail call void @lv_obj_set_width(ptr noundef %16, i32 noundef %17) #10
  %18 = load ptr, ptr %15, align 8, !tbaa !22
  tail call void @lv_label_set_text(ptr noundef %18, ptr noundef nonnull @.str.1) #10
  %19 = load ptr, ptr %15, align 8, !tbaa !22
  %20 = tail call ptr @lv_obj_add_event_cb(ptr noundef %19, ptr noundef nonnull @label_event_cb, i32 noundef 0, ptr noundef null) #10
  tail call void @lv_obj_add_flag(ptr noundef %1, i32 noundef 1024) #10
  tail call void @lv_obj_remove_flag(ptr noundef %1, i32 noundef 2048) #10
  tail call void @lv_textarea_set_cursor_pos(ptr noundef %1, i32 noundef 0)
  tail call fastcc void @start_cursor_blink(ptr noundef %1)
  ret void
}